; Function Attrs: mustprogress uwtable
define hidden void @_ZN15model_converter11display_addERSoR11ast_manager(ptr noundef nonnull align 8 dereferenceable(25) %this, ptr noundef nonnull align 8 dereferenceable(8) %out, ptr noundef nonnull align 8 dereferenceable(976) %m) local_unnamed_addr #3 align 2 personality ptr @__gxx_personality_v0 {
_ZN3refI5modelEC2EPS0_.exit:
  %mdl = alloca %class.ref, align 8
  %dbgenv = alloca %class.smt2_pp_environment_dbg, align 8
  %call = tail call noalias noundef ptr @_ZN6memory8allocateEm(i64 noundef 160)
  tail call void @_ZN5modelC1ER11ast_manager(ptr noundef nonnull align 8 dereferenceable(160) %call, ptr noundef nonnull align 8 dereferenceable(976) %m)
  store ptr %call, ptr %mdl, align 8
  %m_ref_count.i.i.i = getelementptr inbounds i8, ptr %call, i64 16
  %0 = load i32, ptr %m_ref_count.i.i.i, align 8
  %inc.i.i.i = add i32 %0, 1
  store i32 %inc.i.i.i, ptr %m_ref_count.i.i.i, align 8
  %vtable = load ptr, ptr %this, align 8
  %vfn = getelementptr inbounds i8, ptr %vtable, i64 32
  %1 = load ptr, ptr %vfn, align 8
  invoke void %1(ptr noundef nonnull align 8 dereferenceable(25) %this, ptr noundef nonnull align 8 dereferenceable(8) %mdl)
          to label %invoke.cont unwind label %lpad

invoke.cont:                                      ; preds = %_ZN3refI5modelEC2EPS0_.exit
  invoke void @_ZN23smt2_pp_environment_dbgC2ER11ast_manager(ptr noundef nonnull align 8 dereferenceable(640) %dbgenv, ptr noundef nonnull align 8 dereferenceable(976) %m)
          to label %invoke.cont2 unwind label %lpad

invoke.cont2:                                     ; preds = %invoke.cont
  %m_env = getelementptr inbounds i8, ptr %this, i64 16
  %2 = load ptr, ptr %m_env, align 8
  %tobool.not = icmp eq ptr %2, null
  %spec.select = select i1 %tobool.not, ptr %dbgenv, ptr %2
  %3 = load ptr, ptr %mdl, align 8
  invoke void @_ZN15model_converter11display_addERSoR19smt2_pp_environmentR5model(ptr noundef nonnull align 8 dereferenceable(8) %out, ptr noundef nonnull align 8 dereferenceable(56) %spec.select, ptr noundef nonnull align 8 dereferenceable(160) %3)
          to label %invoke.cont7 unwind label %lpad4

invoke.cont7:                                     ; preds = %invoke.cont2
  call void @_ZN23smt2_pp_environment_dbgD2Ev(ptr noundef nonnull align 8 dereferenceable(640) %dbgenv) #16
  %4 = load ptr, ptr %mdl, align 8
  %tobool.not.i.i3 = icmp eq ptr %4, null
  br i1 %tobool.not.i.i3, label %_ZN3refI5modelED2Ev.exit, label %if.then.i.i4

if.then.i.i4:                                     ; preds = %invoke.cont7
  %m_ref_count.i.i.i5 = getelementptr inbounds i8, ptr %4, i64 16
  %5 = load i32, ptr %m_ref_count.i.i.i5, align 8
  %dec.i.i.i = add i32 %5, -1
  store i32 %dec.i.i.i, ptr %m_ref_count.i.i.i5, align 8
  %cmp.i.i.i = icmp eq i32 %dec.i.i.i, 0
  br i1 %cmp.i.i.i, label %if.then.i.i.i, label %_ZN3refI5modelED2Ev.exit

if.then.i.i.i:                                    ; preds = %if.then.i.i4
  %vtable.i.i.i.i = load ptr, ptr %4, align 8
  %6 = load ptr, ptr %vtable.i.i.i.i, align 8
  call void %6(ptr noundef nonnull align 8 dereferenceable(96) %4) #16
  invoke void @_ZN6memory10deallocateEPv(ptr noundef nonnull %4)
          to label %_ZN3refI5modelED2Ev.exit unwind label %terminate.lpad.i

terminate.lpad.i:                                 ; preds = %if.then.i.i.i
  %7 = landingpad { ptr, i32 }
          catch ptr null
  %8 = extractvalue { ptr, i32 } %7, 0
  call void @__clang_call_terminate(ptr %8) #15
  unreachable

_ZN3refI5modelED2Ev.exit:                         ; preds = %invoke.cont7, %if.then.i.i4, %if.then.i.i.i
  ret void

lpad:                                             ; preds = %invoke.cont, %_ZN3refI5modelEC2EPS0_.exit
  %9 = landingpad { ptr, i32 }
          cleanup
  br label %ehcleanup

lpad4:                                            ; preds = %invoke.cont2
  %10 = landingpad { ptr, i32 }
          cleanup
  call void @_ZN23smt2_pp_environment_dbgD2Ev(ptr noundef nonnull align 8 dereferenceable(640) %dbgenv) #16
  br label %ehcleanup

ehcleanup:                                        ; preds = %lpad4, %lpad
  %.pn = phi { ptr, i32 } [ %10, %lpad4 ], [ %9, %lpad ]
  call void @_ZN3refI5modelED2Ev(ptr noundef nonnull align 8 dereferenceable(8) %mdl) #16
  resume { ptr, i32 } %.pn
}